target datalayout = "e-m:e-p270:32:32-p271:32:32-p272:64:64-i64:64-i128:128-f80:128-n8:16:32:64-S128"
target triple = "x86_64-pc-linux-gnu"

%struct.s_xdemitconf = type { i64, i64, i64, ptr, ptr, ptr }
%struct.ff_regs = type { i32, ptr }
%struct.ff_reg = type { %struct.re_pattern_buffer, i32 }
%struct.re_pattern_buffer = type { ptr, i64, i64, i64, ptr, ptr, i64, i8 }

@.str.6 = private unnamed_addr constant [18 x i8] c"xdiff-interface.c\00", align 1
@.str.7 = private unnamed_addr constant [40 x i8] c"mismatch between line count and parsing\00", align 1
@.str.8 = private unnamed_addr constant [40 x i8] c"Last expression must not be negated: %s\00", align 1
@.str.9 = private unnamed_addr constant [43 x i8] c"Invalid regexp to look for hunk header: %s\00", align 1
@.str.19 = private unnamed_addr constant [27 x i8] c"size_t overflow: %lu * %lu\00", align 1

; Function Attrs: inlinehint nounwind uwtable
define internal i64 @st_mult(i64 noundef %0, i64 noundef %1) #6 {
  %3 = alloca i64, align 8
  %4 = alloca i64, align 8
  store i64 %0, ptr %3, align 8, !tbaa !18
  store i64 %1, ptr %4, align 8, !tbaa !18
  %5 = load i64, ptr %3, align 8, !tbaa !18
  %6 = icmp ne i64 %5, 0
  br i1 %6, label %7, label %15

7:                                                ; preds = %2
  %8 = load i64, ptr %4, align 8, !tbaa !18
  %9 = load i64, ptr %3, align 8, !tbaa !18
  %10 = udiv i64 -1, %9
  %11 = icmp ugt i64 %8, %10
  br i1 %11, label %12, label %15

12:                                               ; preds = %7
  %13 = load i64, ptr %3, align 8, !tbaa !18
  %14 = load i64, ptr %4, align 8, !tbaa !18
  call void (ptr, ...) @die(ptr noundef @.str.19, i64 noundef %13, i64 noundef %14) #11
  unreachable

15:                                               ; preds = %7, %2
  %16 = load i64, ptr %3, align 8, !tbaa !18
  %17 = load i64, ptr %4, align 8, !tbaa !18
  %18 = mul i64 %16, %17
  ret i64 %18
}

; Function Attrs: nounwind uwtable
define dso_local void @xdiff_set_find_func(ptr noundef %0, ptr noundef %1, i32 noundef %2) #0 {
  %4 = alloca ptr, align 8
  %5 = alloca ptr, align 8
  %6 = alloca i32, align 4
  %7 = alloca i32, align 4
  %8 = alloca ptr, align 8
  %9 = alloca ptr, align 8
  %10 = alloca ptr, align 8
  %11 = alloca ptr, align 8
  %12 = alloca ptr, align 8
  store ptr %0, ptr %4, align 8, !tbaa !11
  store ptr %1, ptr %5, align 8, !tbaa !16
  store i32 %2, ptr %6, align 4, !tbaa !25
  call void @llvm.lifetime.start.p0(i64 4, ptr %7) #9
  call void @llvm.lifetime.start.p0(i64 8, ptr %8) #9
  %13 = load ptr, ptr %4, align 8, !tbaa !11
  %14 = getelementptr inbounds nuw %struct.s_xdemitconf, ptr %13, i32 0, i32 3
  store ptr @ff_regexp, ptr %14, align 8, !tbaa !61
  %15 = call ptr @xmalloc(i64 noundef 16)
  %16 = load ptr, ptr %4, align 8, !tbaa !11
  %17 = getelementptr inbounds nuw %struct.s_xdemitconf, ptr %16, i32 0, i32 4
  store ptr %15, ptr %17, align 8, !tbaa !62
  store ptr %15, ptr %8, align 8, !tbaa !63
  store i32 0, ptr %7, align 4, !tbaa !25
  %18 = load ptr, ptr %8, align 8, !tbaa !63
  %19 = getelementptr inbounds nuw %struct.ff_regs, ptr %18, i32 0, i32 0
  store i32 1, ptr %19, align 8, !tbaa !65
  br label %20

20:                                               ; preds = %41, %3
  %21 = load ptr, ptr %5, align 8, !tbaa !16
  %22 = load i32, ptr %7, align 4, !tbaa !25
  %23 = sext i32 %22 to i64
  %24 = getelementptr inbounds i8, ptr %21, i64 %23
  %25 = load i8, ptr %24, align 1, !tbaa !30
  %26 = icmp ne i8 %25, 0
  br i1 %26, label %27, label %44

27:                                               ; preds = %20
  %28 = load ptr, ptr %5, align 8, !tbaa !16
  %29 = load i32, ptr %7, align 4, !tbaa !25
  %30 = sext i32 %29 to i64
  %31 = getelementptr inbounds i8, ptr %28, i64 %30
  %32 = load i8, ptr %31, align 1, !tbaa !30
  %33 = sext i8 %32 to i32
  %34 = icmp eq i32 %33, 10
  br i1 %34, label %35, label %40

35:                                               ; preds = %27
  %36 = load ptr, ptr %8, align 8, !tbaa !63
  %37 = getelementptr inbounds nuw %struct.ff_regs, ptr %36, i32 0, i32 0
  %38 = load i32, ptr %37, align 8, !tbaa !65
  %39 = add nsw i32 %38, 1
  store i32 %39, ptr %37, align 8, !tbaa !65
  br label %40

40:                                               ; preds = %35, %27
  br label %41

41:                                               ; preds = %40
  %42 = load i32, ptr %7, align 4, !tbaa !25
  %43 = add nsw i32 %42, 1
  store i32 %43, ptr %7, align 4, !tbaa !25
  br label %20, !llvm.loop !68

44:                                               ; preds = %20
  %45 = load ptr, ptr %8, align 8, !tbaa !63
  %46 = getelementptr inbounds nuw %struct.ff_regs, ptr %45, i32 0, i32 0
  %47 = load i32, ptr %46, align 8, !tbaa !65
  %48 = sext i32 %47 to i64
  %49 = call i64 @st_mult(i64 noundef 72, i64 noundef %48)
  %50 = call ptr @xmalloc(i64 noundef %49)
  %51 = load ptr, ptr %8, align 8, !tbaa !63
  %52 = getelementptr inbounds nuw %struct.ff_regs, ptr %51, i32 0, i32 1
  store ptr %50, ptr %52, align 8, !tbaa !69
  store i32 0, ptr %7, align 4, !tbaa !25
  br label %53

53:                                               ; preds = %132, %44
  %54 = load i32, ptr %7, align 4, !tbaa !25
  %55 = load ptr, ptr %8, align 8, !tbaa !63
  %56 = getelementptr inbounds nuw %struct.ff_regs, ptr %55, i32 0, i32 0
  %57 = load i32, ptr %56, align 8, !tbaa !65
  %58 = icmp slt i32 %54, %57
  br i1 %58, label %59, label %135

59:                                               ; preds = %53
  call void @llvm.lifetime.start.p0(i64 8, ptr %9) #9
  %60 = load ptr, ptr %8, align 8, !tbaa !63
  %61 = getelementptr inbounds nuw %struct.ff_regs, ptr %60, i32 0, i32 1
  %62 = load ptr, ptr %61, align 8, !tbaa !69
  %63 = load i32, ptr %7, align 4, !tbaa !25
  %64 = sext i32 %63 to i64
  %65 = getelementptr inbounds %struct.ff_reg, ptr %62, i64 %64
  store ptr %65, ptr %9, align 8, !tbaa !70
  call void @llvm.lifetime.start.p0(i64 8, ptr %10) #9
  call void @llvm.lifetime.start.p0(i64 8, ptr %11) #9
  call void @llvm.lifetime.start.p0(i64 8, ptr %12) #9
  store ptr null, ptr %12, align 8, !tbaa !16
  %66 = load ptr, ptr %5, align 8, !tbaa !16
  %67 = icmp ne ptr %66, null
  br i1 %67, label %69, label %68

68:                                               ; preds = %59
  call void (ptr, i32, ptr, ...) @BUG_fl(ptr noundef @.str.6, i32 noundef 266, ptr noundef @.str.7) #11
  unreachable

69:                                               ; preds = %59
  %70 = load ptr, ptr %5, align 8, !tbaa !16
  %71 = call ptr @strchr(ptr noundef %70, i32 noundef 10) #10
  store ptr %71, ptr %10, align 8, !tbaa !16
  %72 = load ptr, ptr %5, align 8, !tbaa !16
  %73 = load i8, ptr %72, align 1, !tbaa !30
  %74 = sext i8 %73 to i32
  %75 = icmp eq i32 %74, 33
  %76 = zext i1 %75 to i32
  %77 = load ptr, ptr %9, align 8, !tbaa !70
  %78 = getelementptr inbounds nuw %struct.ff_reg, ptr %77, i32 0, i32 1
  store i32 %76, ptr %78, align 8, !tbaa !71
  %79 = load ptr, ptr %9, align 8, !tbaa !70
  %80 = getelementptr inbounds nuw %struct.ff_reg, ptr %79, i32 0, i32 1
  %81 = load i32, ptr %80, align 8, !tbaa !71
  %82 = icmp ne i32 %81, 0
  br i1 %82, label %83, label %92

83:                                               ; preds = %69
  %84 = load i32, ptr %7, align 4, !tbaa !25
  %85 = load ptr, ptr %8, align 8, !tbaa !63
  %86 = getelementptr inbounds nuw %struct.ff_regs, ptr %85, i32 0, i32 0
  %87 = load i32, ptr %86, align 8, !tbaa !65
  %88 = sub nsw i32 %87, 1
  %89 = icmp eq i32 %84, %88
  br i1 %89, label %90, label %92

90:                                               ; preds = %83
  %91 = load ptr, ptr %5, align 8, !tbaa !16
  call void (ptr, ...) @die(ptr noundef @.str.8, ptr noundef %91) #11
  unreachable

92:                                               ; preds = %83, %69
  %93 = load ptr, ptr %5, align 8, !tbaa !16
  %94 = load i8, ptr %93, align 1, !tbaa !30
  %95 = sext i8 %94 to i32
  %96 = icmp eq i32 %95, 33
  br i1 %96, label %97, label %100

97:                                               ; preds = %92
  %98 = load ptr, ptr %5, align 8, !tbaa !16
  %99 = getelementptr inbounds nuw i8, ptr %98, i32 1
  store ptr %99, ptr %5, align 8, !tbaa !16
  br label %100

100:                                              ; preds = %97, %92
  %101 = load ptr, ptr %10, align 8, !tbaa !16
  %102 = icmp ne ptr %101, null
  br i1 %102, label %103, label %111

103:                                              ; preds = %100
  %104 = load ptr, ptr %5, align 8, !tbaa !16
  %105 = load ptr, ptr %10, align 8, !tbaa !16
  %106 = load ptr, ptr %5, align 8, !tbaa !16
  %107 = ptrtoint ptr %105 to i64
  %108 = ptrtoint ptr %106 to i64
  %109 = sub i64 %107, %108
  %110 = call ptr @xstrndup(ptr noundef %104, i64 noundef %109)
  store ptr %110, ptr %12, align 8, !tbaa !16
  store ptr %110, ptr %11, align 8, !tbaa !16
  br label %113

111:                                              ; preds = %100
  %112 = load ptr, ptr %5, align 8, !tbaa !16
  store ptr %112, ptr %11, align 8, !tbaa !16
  br label %113

113:                                              ; preds = %111, %103
  %114 = load ptr, ptr %9, align 8, !tbaa !70
  %115 = getelementptr inbounds nuw %struct.ff_reg, ptr %114, i32 0, i32 0
  %116 = load ptr, ptr %11, align 8, !tbaa !16
  %117 = load i32, ptr %6, align 4, !tbaa !25
  %118 = call i32 @regcomp(ptr noundef %115, ptr noundef %116, i32 noundef %117)
  %119 = icmp ne i32 %118, 0
  br i1 %119, label %120, label %122

120:                                              ; preds = %113
  %121 = load ptr, ptr %11, align 8, !tbaa !16
  call void (ptr, ...) @die(ptr noundef @.str.9, ptr noundef %121) #11
  unreachable

122:                                              ; preds = %113
  %123 = load ptr, ptr %12, align 8, !tbaa !16
  call void @free(ptr noundef %123) #9
  %124 = load ptr, ptr %10, align 8, !tbaa !16
  %125 = icmp ne ptr %124, null
  br i1 %125, label %126, label %129

126:                                              ; preds = %122
  %127 = load ptr, ptr %10, align 8, !tbaa !16
  %128 = getelementptr inbounds i8, ptr %127, i64 1
  br label %130

129:                                              ; preds = %122
  br label %130

130:                                              ; preds = %129, %126
  %131 = phi ptr [ %128, %126 ], [ null, %129 ]
  store ptr %131, ptr %5, align 8, !tbaa !16
  call void @llvm.lifetime.end.p0(i64 8, ptr %12) #9
  call void @llvm.lifetime.end.p0(i64 8, ptr %11) #9
  call void @llvm.lifetime.end.p0(i64 8, ptr %10) #9
  call void @llvm.lifetime.end.p0(i64 8, ptr %9) #9
  br label %132

132:                                              ; preds = %130
  %133 = load i32, ptr %7, align 4, !tbaa !25
  %134 = add nsw i32 %133, 1
  store i32 %134, ptr %7, align 4, !tbaa !25
  br label %53, !llvm.loop !75

135:                                              ; preds = %53
  call void @llvm.lifetime.end.p0(i64 8, ptr %8) #9
  call void @llvm.lifetime.end.p0(i64 4, ptr %7) #9
  ret void
}