; Function Attrs: nounwind uwtable
define dso_local void @xdiff_set_find_func(ptr noundef writeonly captures(none) initializes((24, 40)) %0, ptr noundef %1, i32 noundef %2) local_unnamed_addr #0 {
  %4 = getelementptr inbounds nuw i8, ptr %0, i64 24
  store ptr @ff_regexp, ptr %4, align 8, !tbaa !46
  %5 = tail call ptr @xmalloc(i64 noundef 16) #13
  %6 = getelementptr inbounds nuw i8, ptr %0, i64 32
  store ptr %5, ptr %6, align 8, !tbaa !47
  store i32 1, ptr %5, align 8, !tbaa !48
  br label %7

7:                                                ; preds = %13, %3
  %8 = phi i32 [ %14, %13 ], [ 1, %3 ]
  %indvars.iv = phi i64 [ %indvars.iv.next, %13 ], [ 0, %3 ]
  %9 = getelementptr inbounds nuw i8, ptr %1, i64 %indvars.iv
  %10 = load i8, ptr %9, align 1, !tbaa !20
  switch i8 %10, label %13 [
    i8 0, label %15
    i8 10, label %11
  ]

11:                                               ; preds = %7
  %12 = add nsw i32 %8, 1
  store i32 %12, ptr %5, align 8, !tbaa !48
  br label %13

13:                                               ; preds = %7, %11
  %14 = phi i32 [ %8, %7 ], [ %12, %11 ]
  %indvars.iv.next = add nuw nsw i64 %indvars.iv, 1
  br label %7, !llvm.loop !51

15:                                               ; preds = %7
  %16 = sext i32 %8 to i64
  %17 = icmp slt i32 %8, 0
  br i1 %17, label %18, label %st_mult.exit

18:                                               ; preds = %15
  tail call void (ptr, ...) @die(ptr noundef nonnull @.str.19, i64 noundef 72, i64 noundef range(i64 -2147483648, 2147483648) %16) #14
  unreachable

st_mult.exit:                                     ; preds = %15
  %19 = mul nuw nsw i64 %16, 72
  %20 = tail call ptr @xmalloc(i64 noundef %19) #13
  %21 = getelementptr inbounds nuw i8, ptr %5, i64 8
  store ptr %20, ptr %21, align 8, !tbaa !52
  %22 = load i32, ptr %5, align 8, !tbaa !48
  %23 = icmp sgt i32 %22, 0
  br i1 %23, label %.lr.ph, label %._crit_edge

.lr.ph:                                           ; preds = %st_mult.exit, %49
  %indvars.iv57 = phi i64 [ %indvars.iv.next58, %49 ], [ 0, %st_mult.exit ]
  %24 = phi i32 [ %52, %49 ], [ %22, %st_mult.exit ]
  %.03851 = phi ptr [ %51, %49 ], [ %1, %st_mult.exit ]
  %25 = load ptr, ptr %21, align 8, !tbaa !52
  %26 = getelementptr inbounds nuw %struct.ff_reg, ptr %25, i64 %indvars.iv57
  %.not43 = icmp eq ptr %.03851, null
  br i1 %.not43, label %27, label %28

27:                                               ; preds = %.lr.ph
  tail call void (ptr, i32, ptr, ...) @BUG_fl(ptr noundef nonnull @.str.6, i32 noundef 266, ptr noundef nonnull @.str.7) #14
  unreachable

28:                                               ; preds = %.lr.ph
  %29 = tail call ptr @strchr(ptr noundef nonnull dereferenceable(1) %.03851, i32 noundef 10) #15
  %30 = load i8, ptr %.03851, align 1, !tbaa !20
  %31 = icmp eq i8 %30, 33
  %32 = zext i1 %31 to i32
  %33 = getelementptr inbounds nuw i8, ptr %26, i64 64
  store i32 %32, ptr %33, align 8, !tbaa !53
  %34 = add nsw i32 %24, -1
  %35 = zext i32 %34 to i64
  %36 = icmp eq i64 %indvars.iv57, %35
  %or.cond = select i1 %31, i1 %36, i1 false
  br i1 %or.cond, label %37, label %38

37:                                               ; preds = %28
  tail call void (ptr, ...) @die(ptr noundef nonnull @.str.8, ptr noundef nonnull %.03851) #14
  unreachable

38:                                               ; preds = %28
  %39 = load i8, ptr %.03851, align 1, !tbaa !20
  %40 = icmp eq i8 %39, 33
  %spec.select.idx = zext i1 %40 to i64
  %spec.select = getelementptr inbounds nuw i8, ptr %.03851, i64 %spec.select.idx
  %.not44 = icmp eq ptr %29, null
  br i1 %.not44, label %46, label %41

41:                                               ; preds = %38
  %42 = ptrtoint ptr %29 to i64
  %43 = ptrtoint ptr %spec.select to i64
  %44 = sub i64 %42, %43
  %45 = tail call ptr @xstrndup(ptr noundef nonnull %spec.select, i64 noundef %44) #13
  br label %46

46:                                               ; preds = %38, %41
  %.037 = phi ptr [ %45, %41 ], [ %spec.select, %38 ]
  %.0 = phi ptr [ %45, %41 ], [ null, %38 ]
  %47 = tail call i32 @regcomp(ptr noundef nonnull %26, ptr noundef %.037, i32 noundef %2) #13
  %.not45 = icmp eq i32 %47, 0
  br i1 %.not45, label %49, label %48

48:                                               ; preds = %46
  tail call void (ptr, ...) @die(ptr noundef nonnull @.str.9, ptr noundef %.037) #14
  unreachable

49:                                               ; preds = %46
  tail call void @free(ptr noundef %.0) #13
  %50 = getelementptr inbounds nuw i8, ptr %29, i64 1
  %51 = select i1 %.not44, ptr null, ptr %50
  %indvars.iv.next58 = add nuw nsw i64 %indvars.iv57, 1
  %52 = load i32, ptr %5, align 8, !tbaa !48
  %53 = sext i32 %52 to i64
  %54 = icmp slt i64 %indvars.iv.next58, %53
  br i1 %54, label %.lr.ph, label %._crit_edge, !llvm.loop !57

._crit_edge:                                      ; preds = %49, %st_mult.exit
  ret void
}